target datalayout = "e-m:e-p270:32:32-p271:32:32-p272:64:64-i64:64-i128:128-f80:128-n8:16:32:64-S128"
target triple = "x86_64-pc-linux-gnu"

%struct.quic_stream_list_node_st = type { ptr, ptr }
%struct.quic_stream_st = type { %struct.quic_stream_list_node_st, %struct.quic_stream_list_node_st, %struct.quic_stream_list_node_st, ptr, i64, i64, i64, i64, i64, i64, i64, ptr, ptr, %struct.quic_txfc_st, %struct.quic_rxfc_st, i64 }
%struct.quic_txfc_st = type { ptr, i64, i64, i8 }
%struct.quic_rxfc_st = type { i64, i64, i64, i64, i64, i64, i64, %struct.OSSL_TIME, ptr, ptr, ptr, i8, i8, i8, i8 }
%struct.OSSL_TIME = type { i64 }

; Function Attrs: nounwind uwtable
define i32 @ossl_quic_stream_map_notify_all_data_sent(ptr noundef %0, ptr noundef %1) #0 {
  %3 = alloca i32, align 4
  %4 = alloca ptr, align 8
  %5 = alloca ptr, align 8
  store ptr %0, ptr %4, align 8, !tbaa !3
  store ptr %1, ptr %5, align 8, !tbaa !37
  %6 = load ptr, ptr %5, align 8, !tbaa !37
  %7 = getelementptr inbounds nuw %struct.quic_stream_st, ptr %6, i32 0, i32 15
  %8 = load i64, ptr %7, align 8
  %9 = lshr i64 %8, 8
  %10 = and i64 %9, 255
  %11 = trunc i64 %10 to i32
  switch i32 %11, label %12 [
    i32 0, label %13
    i32 2, label %14
  ]

12:                                               ; preds = %2
  br label %13

13:                                               ; preds = %2, %12
  store i32 0, ptr %3, align 4
  br label %29

14:                                               ; preds = %2
  %15 = load ptr, ptr %5, align 8, !tbaa !37
  %16 = getelementptr inbounds nuw %struct.quic_stream_st, ptr %15, i32 0, i32 11
  %17 = load ptr, ptr %16, align 8, !tbaa !52
  %18 = load ptr, ptr %5, align 8, !tbaa !37
  %19 = getelementptr inbounds nuw %struct.quic_stream_st, ptr %18, i32 0, i32 10
  %20 = call i32 @ossl_quic_sstream_get_final_size(ptr noundef %17, ptr noundef %19)
  %21 = icmp ne i32 %20, 0
  br i1 %21, label %23, label %22

22:                                               ; preds = %14
  store i32 0, ptr %3, align 4
  br label %29

23:                                               ; preds = %14
  %24 = load ptr, ptr %5, align 8, !tbaa !37
  %25 = getelementptr inbounds nuw %struct.quic_stream_st, ptr %24, i32 0, i32 15
  %26 = load i64, ptr %25, align 8
  %27 = and i64 %26, -65281
  %28 = or i64 %27, 768
  store i64 %28, ptr %25, align 8
  store i32 1, ptr %3, align 4
  br label %29

29:                                               ; preds = %23, %22, %13
  %30 = load i32, ptr %3, align 4
  ret i32 %30
}