; Function Attrs: nounwind uwtable
define range(i32 0, 2) i32 @ossl_quic_stream_map_notify_all_data_sent(ptr noundef readnone captures(none) %0, ptr noundef %1) local_unnamed_addr #0 {
  %3 = getelementptr inbounds nuw i8, ptr %1, i64 256
  %4 = load i64, ptr %3, align 8
  %5 = and i64 %4, 65280
  %cond = icmp eq i64 %5, 512
  br i1 %cond, label %6, label %15

6:                                                ; preds = %2
  %7 = getelementptr inbounds nuw i8, ptr %1, i64 112
  %8 = load ptr, ptr %7, align 8, !tbaa !41
  %9 = getelementptr inbounds nuw i8, ptr %1, i64 104
  %10 = tail call i32 @ossl_quic_sstream_get_final_size(ptr noundef %8, ptr noundef nonnull %9) #13
  %.not = icmp eq i32 %10, 0
  br i1 %.not, label %15, label %11

11:                                               ; preds = %6
  %12 = load i64, ptr %3, align 8
  %13 = and i64 %12, -65281
  %14 = or disjoint i64 %13, 768
  store i64 %14, ptr %3, align 8
  br label %15

15:                                               ; preds = %6, %2, %11
  %.0 = phi i32 [ 1, %11 ], [ 0, %2 ], [ 0, %6 ]
  ret i32 %.0
}